ARM GAS  /var/folders/2t/dz2wf36n58l1r0cmb7nl3kb40000gq/T//cc3uekKx.s 			page 1


   1              		.cpu cortex-m0
   2              		.arch armv6s-m
   3              		.fpu softvfp
   4              		.eabi_attribute 20, 1
   5              		.eabi_attribute 21, 1
   6              		.eabi_attribute 23, 3
   7              		.eabi_attribute 24, 1
   8              		.eabi_attribute 25, 1
   9              		.eabi_attribute 26, 1
  10              		.eabi_attribute 30, 1
  11              		.eabi_attribute 34, 0
  12              		.eabi_attribute 18, 4
  13              		.file	"main.c"
  14              		.text
  15              	.Ltext0:
  16              		.cfi_sections	.debug_frame
  17              		.file 1 "Src/main.c"
  18              		.section	.text.send_char,"ax",%progbits
  19              		.align	1
  20              		.global	send_char
  21              		.syntax unified
  22              		.code	16
  23              		.thumb_func
  25              	send_char:
  26              	.LFB40:
   1:Src/main.c    **** /**
   2:Src/main.c    ****   *
   3:Src/main.c    ****   ******************************************************************************
   4:Src/main.c    ****   * File Name          : main.c
   5:Src/main.c    ****   * Description        : Main program body
   6:Src/main.c    ****   ******************************************************************************
   7:Src/main.c    ****   ** This notice applies to any and all portions of this file
   8:Src/main.c    ****   * that are not between comment pairs USER CODE BEGIN and
   9:Src/main.c    ****   * USER CODE END. Other portions of this file, whether
  10:Src/main.c    ****   * inserted by the user or by software development tools
  11:Src/main.c    ****   * are owned by their respective copyright owners.
  12:Src/main.c    ****   *
  13:Src/main.c    ****   * COPYRIGHT(c) 2018 STMicroelectronics
  14:Src/main.c    ****   *
  15:Src/main.c    ****   * Redistribution and use in source and binary forms, with or without modification,
  16:Src/main.c    ****   * are permitted provided that the following conditions are met:
  17:Src/main.c    ****   *   1. Redistributions of source code must retain the above copyright notice,
  18:Src/main.c    ****   *      this list of conditions and the following disclaimer.
  19:Src/main.c    ****   *   2. Redistributions in binary form must reproduce the above copyright notice,
  20:Src/main.c    ****   *      this list of conditions and the following disclaimer in the documentation
  21:Src/main.c    ****   *      and/or other materials provided with the distribution.
  22:Src/main.c    ****   *   3. Neither the name of STMicroelectronics nor the names of its contributors
  23:Src/main.c    ****   *      may be used to endorse or promote products derived from this software
  24:Src/main.c    ****   *      without specific prior written permission.
  25:Src/main.c    ****   *
  26:Src/main.c    ****   * THIS SOFTWARE IS PROVIDED BY THE COPYRIGHT HOLDERS AND CONTRIBUTORS "AS IS"
  27:Src/main.c    ****   * AND ANY EXPRESS OR IMPLIED WARRANTIES, INCLUDING, BUT NOT LIMITED TO, THE
  28:Src/main.c    ****   * IMPLIED WARRANTIES OF MERCHANTABILITY AND FITNESS FOR A PARTICULAR PURPOSE ARE
  29:Src/main.c    ****   * DISCLAIMED. IN NO EVENT SHALL THE COPYRIGHT HOLDER OR CONTRIBUTORS BE LIABLE
  30:Src/main.c    ****   * FOR ANY DIRECT, INDIRECT, INCIDENTAL, SPECIAL, EXEMPLARY, OR CONSEQUENTIAL
  31:Src/main.c    ****   * DAMAGES (INCLUDING, BUT NOT LIMITED TO, PROCUREMENT OF SUBSTITUTE GOODS OR
  32:Src/main.c    ****   * SERVICES; LOSS OF USE, DATA, OR PROFITS; OR BUSINESS INTERRUPTION) HOWEVER
ARM GAS  /var/folders/2t/dz2wf36n58l1r0cmb7nl3kb40000gq/T//cc3uekKx.s 			page 2


  33:Src/main.c    ****   * CAUSED AND ON ANY THEORY OF LIABILITY, WHETHER IN CONTRACT, STRICT LIABILITY,
  34:Src/main.c    ****   * OR TORT (INCLUDING NEGLIGENCE OR OTHERWISE) ARISING IN ANY WAY OUT OF THE USE
  35:Src/main.c    ****   * OF THIS SOFTWARE, EVEN IF ADVISED OF THE POSSIBILITY OF SUCH DAMAGE.
  36:Src/main.c    ****   *
  37:Src/main.c    ****   ******************************************************************************
  38:Src/main.c    ****   */
  39:Src/main.c    **** 
  40:Src/main.c    **** /* Includes ------------------------------------------------------------------*/
  41:Src/main.c    **** #include "main.h"
  42:Src/main.c    **** #include "stm32f0xx_hal.h"
  43:Src/main.c    **** void _Error_Handler(char * file, int line);
  44:Src/main.c    **** 
  45:Src/main.c    **** /* USER CODE BEGIN Includes */
  46:Src/main.c    **** 
  47:Src/main.c    **** /* USER CODE END Includes */
  48:Src/main.c    **** 
  49:Src/main.c    **** /* Private variables ---------------------------------------------------------*/
  50:Src/main.c    **** 
  51:Src/main.c    **** /* USER CODE BEGIN PV */
  52:Src/main.c    **** /* Private variables ---------------------------------------------------------*/
  53:Src/main.c    **** 
  54:Src/main.c    **** /* USER CODE END PV */
  55:Src/main.c    **** 
  56:Src/main.c    **** /* Private function prototypes -----------------------------------------------*/
  57:Src/main.c    **** void SystemClock_Config(void);
  58:Src/main.c    **** 
  59:Src/main.c    **** /* USER CODE BEGIN PFP */
  60:Src/main.c    **** /* Private function prototypes -----------------------------------------------*/
  61:Src/main.c    **** 
  62:Src/main.c    **** /* USER CODE END PFP */
  63:Src/main.c    **** 
  64:Src/main.c    **** /* USER CODE BEGIN 0 */
  65:Src/main.c    **** 
  66:Src/main.c    **** /* USER CODE END 0 */
  67:Src/main.c    **** 
  68:Src/main.c    **** void send_char(char c)
  69:Src/main.c    **** {
  27              		.loc 1 69 1 view -0
  28              		.cfi_startproc
  29              		@ args = 0, pretend = 0, frame = 0
  30              		@ frame_needed = 0, uses_anonymous_args = 0
  31              		@ link register save eliminated.
  32              	.LVL0:
  33              	.L2:
  70:Src/main.c    ****   // Use an empty while loop which exits once the flag is set.
  71:Src/main.c    ****   while (!(USART3->ISR & USART_ISR_TXE))
  72:Src/main.c    ****   {
  73:Src/main.c    ****   };
  34              		.loc 1 73 3 view .LVU1
  71:Src/main.c    ****   {
  35              		.loc 1 71 10 discriminator 1 view .LVU2
  71:Src/main.c    ****   {
  36              		.loc 1 71 18 is_stmt 0 discriminator 1 view .LVU3
  37 0000 034B     		ldr	r3, .L4
  38 0002 DB69     		ldr	r3, [r3, #28]
  71:Src/main.c    ****   {
  39              		.loc 1 71 10 discriminator 1 view .LVU4
ARM GAS  /var/folders/2t/dz2wf36n58l1r0cmb7nl3kb40000gq/T//cc3uekKx.s 			page 3


  40 0004 1B06     		lsls	r3, r3, #24
  41 0006 FBD5     		bpl	.L2
  42              		.loc 1 73 4 is_stmt 1 view .LVU5
  74:Src/main.c    ****   // Write the character into the transmit data register
  75:Src/main.c    ****   USART3->TDR = c;
  43              		.loc 1 75 3 view .LVU6
  44              		.loc 1 75 15 is_stmt 0 view .LVU7
  45 0008 014B     		ldr	r3, .L4
  46 000a 1885     		strh	r0, [r3, #40]
  76:Src/main.c    **** }
  47              		.loc 1 76 1 view .LVU8
  48              		@ sp needed
  49 000c 7047     		bx	lr
  50              	.L5:
  51 000e C046     		.align	2
  52              	.L4:
  53 0010 00480040 		.word	1073760256
  54              		.cfi_endproc
  55              	.LFE40:
  57              		.section	.text.transmit_string,"ax",%progbits
  58              		.align	1
  59              		.global	transmit_string
  60              		.syntax unified
  61              		.code	16
  62              		.thumb_func
  64              	transmit_string:
  65              	.LVL1:
  66              	.LFB41:
  77:Src/main.c    **** 
  78:Src/main.c    **** // Loop through an array of characters, send each one, exit when the null character is reached.
  79:Src/main.c    **** void transmit_string(char str[])
  80:Src/main.c    **** {
  67              		.loc 1 80 1 is_stmt 1 view -0
  68              		.cfi_startproc
  69              		@ args = 0, pretend = 0, frame = 0
  70              		@ frame_needed = 0, uses_anonymous_args = 0
  71              		.loc 1 80 1 is_stmt 0 view .LVU10
  72 0000 70B5     		push	{r4, r5, r6, lr}
  73              	.LCFI0:
  74              		.cfi_def_cfa_offset 16
  75              		.cfi_offset 4, -16
  76              		.cfi_offset 5, -12
  77              		.cfi_offset 6, -8
  78              		.cfi_offset 14, -4
  79 0002 0500     		movs	r5, r0
  81:Src/main.c    ****   for (int i = 0; str[i] != '\0'; i++)
  80              		.loc 1 81 3 is_stmt 1 view .LVU11
  81              	.LBB2:
  82              		.loc 1 81 8 view .LVU12
  83              	.LVL2:
  84              		.loc 1 81 12 is_stmt 0 view .LVU13
  85 0004 0024     		movs	r4, #0
  86              		.loc 1 81 3 view .LVU14
  87 0006 02E0     		b	.L7
  88              	.LVL3:
  89              	.L8:
  82:Src/main.c    ****   {
ARM GAS  /var/folders/2t/dz2wf36n58l1r0cmb7nl3kb40000gq/T//cc3uekKx.s 			page 4


  83:Src/main.c    ****     send_char(str[i]);
  90              		.loc 1 83 5 is_stmt 1 view .LVU15
  91 0008 FFF7FEFF 		bl	send_char
  92              	.LVL4:
  81:Src/main.c    ****   for (int i = 0; str[i] != '\0'; i++)
  93              		.loc 1 81 36 discriminator 3 view .LVU16
  94 000c 0134     		adds	r4, r4, #1
  95              	.LVL5:
  96              	.L7:
  81:Src/main.c    ****   for (int i = 0; str[i] != '\0'; i++)
  97              		.loc 1 81 26 discriminator 1 view .LVU17
  81:Src/main.c    ****   for (int i = 0; str[i] != '\0'; i++)
  98              		.loc 1 81 22 is_stmt 0 discriminator 1 view .LVU18
  99 000e 285D     		ldrb	r0, [r5, r4]
  81:Src/main.c    ****   for (int i = 0; str[i] != '\0'; i++)
 100              		.loc 1 81 26 discriminator 1 view .LVU19
 101 0010 0028     		cmp	r0, #0
 102 0012 F9D1     		bne	.L8
 103              	.LBE2:
  84:Src/main.c    ****   }
  85:Src/main.c    **** }
 104              		.loc 1 85 1 view .LVU20
 105              		@ sp needed
 106              	.LVL6:
 107              	.LVL7:
 108              		.loc 1 85 1 view .LVU21
 109 0014 70BD     		pop	{r4, r5, r6, pc}
 110              		.cfi_endproc
 111              	.LFE41:
 113              		.section	.text._Error_Handler,"ax",%progbits
 114              		.align	1
 115              		.global	_Error_Handler
 116              		.syntax unified
 117              		.code	16
 118              		.thumb_func
 120              	_Error_Handler:
 121              	.LFB44:
  86:Src/main.c    **** 
  87:Src/main.c    **** int main(void)
  88:Src/main.c    **** {
  89:Src/main.c    ****   SystemClock_Config();
  90:Src/main.c    **** 
  91:Src/main.c    ****   // Enable GPIOB clock
  92:Src/main.c    ****   RCC->AHBENR |= RCC_AHBENR_GPIOBEN;
  93:Src/main.c    **** 
  94:Src/main.c    ****   // Set PB10 and PB11 to alternate function mode.
  95:Src/main.c    ****   GPIOB->MODER &= ~(3 << 20);
  96:Src/main.c    ****   GPIOB->MODER |= 2 << 20;
  97:Src/main.c    ****   GPIOB->MODER &= ~(3 << 22);
  98:Src/main.c    ****   GPIOB->MODER |= 2 << 22;
  99:Src/main.c    **** 
 100:Src/main.c    ****   // Set PB10 and PB11 in AFRH AF4 mode (PB10 -> TX, PB11 -> RX) (USART3)
 101:Src/main.c    ****   GPIOB->AFR[1] &= ~(0xF << 8);
 102:Src/main.c    ****   GPIOB->AFR[1] |= 4 << 8;
 103:Src/main.c    ****   GPIOB->AFR[1] &= ~(0xF << 12);
 104:Src/main.c    ****   GPIOB->AFR[1] |= 4 << 12;
 105:Src/main.c    **** 
ARM GAS  /var/folders/2t/dz2wf36n58l1r0cmb7nl3kb40000gq/T//cc3uekKx.s 			page 5


 106:Src/main.c    ****   // Enable USART3 clock
 107:Src/main.c    ****   RCC->APB1ENR |= RCC_APB1ENR_USART3EN;
 108:Src/main.c    ****   // Set baud rate to 115200 bits/s
 109:Src/main.c    ****   USART3->BRR = HAL_RCC_GetHCLKFreq() / 115200;
 110:Src/main.c    ****   // Enable transmission and reception
 111:Src/main.c    ****   USART3->CR1 |= USART_CR1_TE | USART_CR1_RE;
 112:Src/main.c    ****   // Enable USART3
 113:Src/main.c    ****   USART3->CR1 |= USART_CR1_UE;
 114:Src/main.c    **** 
 115:Src/main.c    ****   while(1)
 116:Src/main.c    ****   {
 117:Src/main.c    ****     transmit_string("Hello, World!\n");
 118:Src/main.c    ****     HAL_Delay(1000);
 119:Src/main.c    ****   }
 120:Src/main.c    ****   
 121:Src/main.c    **** }
 122:Src/main.c    **** 
 123:Src/main.c    **** /** System Clock Configuration
 124:Src/main.c    **** */
 125:Src/main.c    **** void SystemClock_Config(void)
 126:Src/main.c    **** {
 127:Src/main.c    **** 
 128:Src/main.c    ****   RCC_OscInitTypeDef RCC_OscInitStruct;
 129:Src/main.c    ****   RCC_ClkInitTypeDef RCC_ClkInitStruct;
 130:Src/main.c    **** 
 131:Src/main.c    ****     /**Initializes the CPU, AHB and APB busses clocks
 132:Src/main.c    ****     */
 133:Src/main.c    ****   RCC_OscInitStruct.OscillatorType = RCC_OSCILLATORTYPE_HSI;
 134:Src/main.c    ****   RCC_OscInitStruct.HSIState = RCC_HSI_ON;
 135:Src/main.c    ****   RCC_OscInitStruct.HSICalibrationValue = 16;
 136:Src/main.c    ****   RCC_OscInitStruct.PLL.PLLState = RCC_PLL_NONE;
 137:Src/main.c    ****   if (HAL_RCC_OscConfig(&RCC_OscInitStruct) != HAL_OK)
 138:Src/main.c    ****   {
 139:Src/main.c    ****     _Error_Handler(__FILE__, __LINE__);
 140:Src/main.c    ****   }
 141:Src/main.c    **** 
 142:Src/main.c    ****     /**Initializes the CPU, AHB and APB busses clocks
 143:Src/main.c    ****     */
 144:Src/main.c    ****   RCC_ClkInitStruct.ClockType = RCC_CLOCKTYPE_HCLK|RCC_CLOCKTYPE_SYSCLK
 145:Src/main.c    ****                               |RCC_CLOCKTYPE_PCLK1;
 146:Src/main.c    ****   RCC_ClkInitStruct.SYSCLKSource = RCC_SYSCLKSOURCE_HSI;
 147:Src/main.c    ****   RCC_ClkInitStruct.AHBCLKDivider = RCC_SYSCLK_DIV1;
 148:Src/main.c    ****   RCC_ClkInitStruct.APB1CLKDivider = RCC_HCLK_DIV1;
 149:Src/main.c    **** 
 150:Src/main.c    ****   if (HAL_RCC_ClockConfig(&RCC_ClkInitStruct, FLASH_LATENCY_0) != HAL_OK)
 151:Src/main.c    ****   {
 152:Src/main.c    ****     _Error_Handler(__FILE__, __LINE__);
 153:Src/main.c    ****   }
 154:Src/main.c    **** 
 155:Src/main.c    ****     /**Configure the Systick interrupt time
 156:Src/main.c    ****     */
 157:Src/main.c    ****   HAL_SYSTICK_Config(HAL_RCC_GetHCLKFreq()/1000);
 158:Src/main.c    **** 
 159:Src/main.c    ****     /**Configure the Systick
 160:Src/main.c    ****     */
 161:Src/main.c    ****   HAL_SYSTICK_CLKSourceConfig(SYSTICK_CLKSOURCE_HCLK);
 162:Src/main.c    **** 
ARM GAS  /var/folders/2t/dz2wf36n58l1r0cmb7nl3kb40000gq/T//cc3uekKx.s 			page 6


 163:Src/main.c    ****   /* SysTick_IRQn interrupt configuration */
 164:Src/main.c    ****   HAL_NVIC_SetPriority(SysTick_IRQn, 0, 0);
 165:Src/main.c    **** }
 166:Src/main.c    **** 
 167:Src/main.c    **** /* USER CODE BEGIN 4 */
 168:Src/main.c    **** 
 169:Src/main.c    **** /* USER CODE END 4 */
 170:Src/main.c    **** 
 171:Src/main.c    **** /**
 172:Src/main.c    ****   * @brief  This function is executed in case of error occurrence.
 173:Src/main.c    ****   * @param  None
 174:Src/main.c    ****   * @retval None
 175:Src/main.c    ****   */
 176:Src/main.c    **** void _Error_Handler(char * file, int line)
 177:Src/main.c    **** {
 122              		.loc 1 177 1 is_stmt 1 view -0
 123              		.cfi_startproc
 124              		@ Volatile: function does not return.
 125              		@ args = 0, pretend = 0, frame = 0
 126              		@ frame_needed = 0, uses_anonymous_args = 0
 127              		@ link register save eliminated.
 128              	.LVL8:
 129              	.L10:
 178:Src/main.c    ****   /* USER CODE BEGIN Error_Handler_Debug */
 179:Src/main.c    ****   /* User can add his own implementation to report the HAL error return state */
 180:Src/main.c    ****   while(1)
 130              		.loc 1 180 3 view .LVU23
 181:Src/main.c    ****   {
 182:Src/main.c    ****   }
 131              		.loc 1 182 3 view .LVU24
 180:Src/main.c    ****   {
 132              		.loc 1 180 8 view .LVU25
 133 0000 FEE7     		b	.L10
 134              		.cfi_endproc
 135              	.LFE44:
 137              		.section	.rodata.SystemClock_Config.str1.4,"aMS",%progbits,1
 138              		.align	2
 139              	.LC0:
 140 0000 5372632F 		.ascii	"Src/main.c\000"
 140      6D61696E 
 140      2E6300
 141              		.global	__aeabi_uidiv
 142              		.section	.text.SystemClock_Config,"ax",%progbits
 143              		.align	1
 144              		.global	SystemClock_Config
 145              		.syntax unified
 146              		.code	16
 147              		.thumb_func
 149              	SystemClock_Config:
 150              	.LFB43:
 126:Src/main.c    **** 
 151              		.loc 1 126 1 view -0
 152              		.cfi_startproc
 153              		@ args = 0, pretend = 0, frame = 72
 154              		@ frame_needed = 0, uses_anonymous_args = 0
 155 0000 00B5     		push	{lr}
 156              	.LCFI1:
ARM GAS  /var/folders/2t/dz2wf36n58l1r0cmb7nl3kb40000gq/T//cc3uekKx.s 			page 7


 157              		.cfi_def_cfa_offset 4
 158              		.cfi_offset 14, -4
 159 0002 93B0     		sub	sp, sp, #76
 160              	.LCFI2:
 161              		.cfi_def_cfa_offset 80
 128:Src/main.c    ****   RCC_ClkInitTypeDef RCC_ClkInitStruct;
 162              		.loc 1 128 3 view .LVU27
 129:Src/main.c    **** 
 163              		.loc 1 129 3 view .LVU28
 133:Src/main.c    ****   RCC_OscInitStruct.HSIState = RCC_HSI_ON;
 164              		.loc 1 133 3 view .LVU29
 133:Src/main.c    ****   RCC_OscInitStruct.HSIState = RCC_HSI_ON;
 165              		.loc 1 133 36 is_stmt 0 view .LVU30
 166 0004 0223     		movs	r3, #2
 167 0006 0593     		str	r3, [sp, #20]
 134:Src/main.c    ****   RCC_OscInitStruct.HSICalibrationValue = 16;
 168              		.loc 1 134 3 is_stmt 1 view .LVU31
 134:Src/main.c    ****   RCC_OscInitStruct.HSICalibrationValue = 16;
 169              		.loc 1 134 30 is_stmt 0 view .LVU32
 170 0008 013B     		subs	r3, r3, #1
 171 000a 0893     		str	r3, [sp, #32]
 135:Src/main.c    ****   RCC_OscInitStruct.PLL.PLLState = RCC_PLL_NONE;
 172              		.loc 1 135 3 is_stmt 1 view .LVU33
 135:Src/main.c    ****   RCC_OscInitStruct.PLL.PLLState = RCC_PLL_NONE;
 173              		.loc 1 135 41 is_stmt 0 view .LVU34
 174 000c 0F33     		adds	r3, r3, #15
 175 000e 0993     		str	r3, [sp, #36]
 136:Src/main.c    ****   if (HAL_RCC_OscConfig(&RCC_OscInitStruct) != HAL_OK)
 176              		.loc 1 136 3 is_stmt 1 view .LVU35
 136:Src/main.c    ****   if (HAL_RCC_OscConfig(&RCC_OscInitStruct) != HAL_OK)
 177              		.loc 1 136 34 is_stmt 0 view .LVU36
 178 0010 0023     		movs	r3, #0
 179 0012 0E93     		str	r3, [sp, #56]
 137:Src/main.c    ****   {
 180              		.loc 1 137 3 is_stmt 1 view .LVU37
 137:Src/main.c    ****   {
 181              		.loc 1 137 7 is_stmt 0 view .LVU38
 182 0014 05A8     		add	r0, sp, #20
 183 0016 FFF7FEFF 		bl	HAL_RCC_OscConfig
 184              	.LVL9:
 137:Src/main.c    ****   {
 185              		.loc 1 137 6 discriminator 1 view .LVU39
 186 001a 0028     		cmp	r0, #0
 187 001c 1ED1     		bne	.L14
 144:Src/main.c    ****                               |RCC_CLOCKTYPE_PCLK1;
 188              		.loc 1 144 3 is_stmt 1 view .LVU40
 144:Src/main.c    ****                               |RCC_CLOCKTYPE_PCLK1;
 189              		.loc 1 144 31 is_stmt 0 view .LVU41
 190 001e 0723     		movs	r3, #7
 191 0020 0193     		str	r3, [sp, #4]
 146:Src/main.c    ****   RCC_ClkInitStruct.AHBCLKDivider = RCC_SYSCLK_DIV1;
 192              		.loc 1 146 3 is_stmt 1 view .LVU42
 146:Src/main.c    ****   RCC_ClkInitStruct.AHBCLKDivider = RCC_SYSCLK_DIV1;
 193              		.loc 1 146 34 is_stmt 0 view .LVU43
 194 0022 0023     		movs	r3, #0
 195 0024 0293     		str	r3, [sp, #8]
 147:Src/main.c    ****   RCC_ClkInitStruct.APB1CLKDivider = RCC_HCLK_DIV1;
ARM GAS  /var/folders/2t/dz2wf36n58l1r0cmb7nl3kb40000gq/T//cc3uekKx.s 			page 8


 196              		.loc 1 147 3 is_stmt 1 view .LVU44
 147:Src/main.c    ****   RCC_ClkInitStruct.APB1CLKDivider = RCC_HCLK_DIV1;
 197              		.loc 1 147 35 is_stmt 0 view .LVU45
 198 0026 0393     		str	r3, [sp, #12]
 148:Src/main.c    **** 
 199              		.loc 1 148 3 is_stmt 1 view .LVU46
 148:Src/main.c    **** 
 200              		.loc 1 148 36 is_stmt 0 view .LVU47
 201 0028 0493     		str	r3, [sp, #16]
 150:Src/main.c    ****   {
 202              		.loc 1 150 3 is_stmt 1 view .LVU48
 150:Src/main.c    ****   {
 203              		.loc 1 150 7 is_stmt 0 view .LVU49
 204 002a 0021     		movs	r1, #0
 205 002c 01A8     		add	r0, sp, #4
 206 002e FFF7FEFF 		bl	HAL_RCC_ClockConfig
 207              	.LVL10:
 150:Src/main.c    ****   {
 208              		.loc 1 150 6 discriminator 1 view .LVU50
 209 0032 0028     		cmp	r0, #0
 210 0034 16D1     		bne	.L15
 157:Src/main.c    **** 
 211              		.loc 1 157 3 is_stmt 1 view .LVU51
 157:Src/main.c    **** 
 212              		.loc 1 157 22 is_stmt 0 view .LVU52
 213 0036 FFF7FEFF 		bl	HAL_RCC_GetHCLKFreq
 214              	.LVL11:
 157:Src/main.c    **** 
 215              		.loc 1 157 3 discriminator 1 view .LVU53
 216 003a FA21     		movs	r1, #250
 217 003c 8900     		lsls	r1, r1, #2
 218 003e FFF7FEFF 		bl	__aeabi_uidiv
 219              	.LVL12:
 220 0042 FFF7FEFF 		bl	HAL_SYSTICK_Config
 221              	.LVL13:
 161:Src/main.c    **** 
 222              		.loc 1 161 3 is_stmt 1 view .LVU54
 223 0046 0420     		movs	r0, #4
 224 0048 FFF7FEFF 		bl	HAL_SYSTICK_CLKSourceConfig
 225              	.LVL14:
 164:Src/main.c    **** }
 226              		.loc 1 164 3 view .LVU55
 227 004c 0120     		movs	r0, #1
 228 004e 0022     		movs	r2, #0
 229 0050 0021     		movs	r1, #0
 230 0052 4042     		rsbs	r0, r0, #0
 231 0054 FFF7FEFF 		bl	HAL_NVIC_SetPriority
 232              	.LVL15:
 165:Src/main.c    **** 
 233              		.loc 1 165 1 is_stmt 0 view .LVU56
 234 0058 13B0     		add	sp, sp, #76
 235              		@ sp needed
 236 005a 00BD     		pop	{pc}
 237              	.L14:
 139:Src/main.c    ****   }
 238              		.loc 1 139 5 is_stmt 1 view .LVU57
 239 005c 0348     		ldr	r0, .L16
ARM GAS  /var/folders/2t/dz2wf36n58l1r0cmb7nl3kb40000gq/T//cc3uekKx.s 			page 9


 240 005e 8B21     		movs	r1, #139
 241 0060 FFF7FEFF 		bl	_Error_Handler
 242              	.LVL16:
 243              	.L15:
 152:Src/main.c    ****   }
 244              		.loc 1 152 5 view .LVU58
 245 0064 0148     		ldr	r0, .L16
 246 0066 9821     		movs	r1, #152
 247 0068 FFF7FEFF 		bl	_Error_Handler
 248              	.LVL17:
 249              	.L17:
 250              		.align	2
 251              	.L16:
 252 006c 00000000 		.word	.LC0
 253              		.cfi_endproc
 254              	.LFE43:
 256              		.section	.rodata.main.str1.4,"aMS",%progbits,1
 257              		.align	2
 258              	.LC2:
 259 0000 48656C6C 		.ascii	"Hello, World!\012\000"
 259      6F2C2057 
 259      6F726C64 
 259      210A00
 260              		.section	.text.main,"ax",%progbits
 261              		.align	1
 262              		.global	main
 263              		.syntax unified
 264              		.code	16
 265              		.thumb_func
 267              	main:
 268              	.LFB42:
  88:Src/main.c    ****   SystemClock_Config();
 269              		.loc 1 88 1 view -0
 270              		.cfi_startproc
 271              		@ Volatile: function does not return.
 272              		@ args = 0, pretend = 0, frame = 0
 273              		@ frame_needed = 0, uses_anonymous_args = 0
 274 0000 10B5     		push	{r4, lr}
 275              	.LCFI3:
 276              		.cfi_def_cfa_offset 8
 277              		.cfi_offset 4, -8
 278              		.cfi_offset 14, -4
  89:Src/main.c    **** 
 279              		.loc 1 89 3 view .LVU60
 280 0002 FFF7FEFF 		bl	SystemClock_Config
 281              	.LVL18:
  92:Src/main.c    **** 
 282              		.loc 1 92 3 view .LVU61
  92:Src/main.c    **** 
 283              		.loc 1 92 6 is_stmt 0 view .LVU62
 284 0006 234A     		ldr	r2, .L20
 285 0008 5369     		ldr	r3, [r2, #20]
  92:Src/main.c    **** 
 286              		.loc 1 92 15 view .LVU63
 287 000a 8021     		movs	r1, #128
 288 000c C902     		lsls	r1, r1, #11
 289 000e 0B43     		orrs	r3, r1
ARM GAS  /var/folders/2t/dz2wf36n58l1r0cmb7nl3kb40000gq/T//cc3uekKx.s 			page 10


 290 0010 5361     		str	r3, [r2, #20]
  95:Src/main.c    ****   GPIOB->MODER |= 2 << 20;
 291              		.loc 1 95 3 is_stmt 1 view .LVU64
  95:Src/main.c    ****   GPIOB->MODER |= 2 << 20;
 292              		.loc 1 95 8 is_stmt 0 view .LVU65
 293 0012 214B     		ldr	r3, .L20+4
 294 0014 1868     		ldr	r0, [r3]
  95:Src/main.c    ****   GPIOB->MODER |= 2 << 20;
 295              		.loc 1 95 16 view .LVU66
 296 0016 214C     		ldr	r4, .L20+8
 297 0018 2040     		ands	r0, r4
 298 001a 1860     		str	r0, [r3]
  96:Src/main.c    ****   GPIOB->MODER &= ~(3 << 22);
 299              		.loc 1 96 3 is_stmt 1 view .LVU67
  96:Src/main.c    ****   GPIOB->MODER &= ~(3 << 22);
 300              		.loc 1 96 8 is_stmt 0 view .LVU68
 301 001c 1C68     		ldr	r4, [r3]
  96:Src/main.c    ****   GPIOB->MODER &= ~(3 << 22);
 302              		.loc 1 96 16 view .LVU69
 303 001e 8020     		movs	r0, #128
 304 0020 8003     		lsls	r0, r0, #14
 305 0022 2043     		orrs	r0, r4
 306 0024 1860     		str	r0, [r3]
  97:Src/main.c    ****   GPIOB->MODER |= 2 << 22;
 307              		.loc 1 97 3 is_stmt 1 view .LVU70
  97:Src/main.c    ****   GPIOB->MODER |= 2 << 22;
 308              		.loc 1 97 8 is_stmt 0 view .LVU71
 309 0026 1868     		ldr	r0, [r3]
  97:Src/main.c    ****   GPIOB->MODER |= 2 << 22;
 310              		.loc 1 97 16 view .LVU72
 311 0028 1D4C     		ldr	r4, .L20+12
 312 002a 2040     		ands	r0, r4
 313 002c 1860     		str	r0, [r3]
  98:Src/main.c    **** 
 314              		.loc 1 98 3 is_stmt 1 view .LVU73
  98:Src/main.c    **** 
 315              		.loc 1 98 8 is_stmt 0 view .LVU74
 316 002e 1C68     		ldr	r4, [r3]
  98:Src/main.c    **** 
 317              		.loc 1 98 16 view .LVU75
 318 0030 8020     		movs	r0, #128
 319 0032 0004     		lsls	r0, r0, #16
 320 0034 2043     		orrs	r0, r4
 321 0036 1860     		str	r0, [r3]
 101:Src/main.c    ****   GPIOB->AFR[1] |= 4 << 8;
 322              		.loc 1 101 3 is_stmt 1 view .LVU76
 101:Src/main.c    ****   GPIOB->AFR[1] |= 4 << 8;
 323              		.loc 1 101 13 is_stmt 0 view .LVU77
 324 0038 586A     		ldr	r0, [r3, #36]
 101:Src/main.c    ****   GPIOB->AFR[1] |= 4 << 8;
 325              		.loc 1 101 17 view .LVU78
 326 003a 1A4C     		ldr	r4, .L20+16
 327 003c 2040     		ands	r0, r4
 328 003e 5862     		str	r0, [r3, #36]
 102:Src/main.c    ****   GPIOB->AFR[1] &= ~(0xF << 12);
 329              		.loc 1 102 3 is_stmt 1 view .LVU79
 102:Src/main.c    ****   GPIOB->AFR[1] &= ~(0xF << 12);
ARM GAS  /var/folders/2t/dz2wf36n58l1r0cmb7nl3kb40000gq/T//cc3uekKx.s 			page 11


 330              		.loc 1 102 13 is_stmt 0 view .LVU80
 331 0040 5C6A     		ldr	r4, [r3, #36]
 102:Src/main.c    ****   GPIOB->AFR[1] &= ~(0xF << 12);
 332              		.loc 1 102 17 view .LVU81
 333 0042 8020     		movs	r0, #128
 334 0044 C000     		lsls	r0, r0, #3
 335 0046 2043     		orrs	r0, r4
 336 0048 5862     		str	r0, [r3, #36]
 103:Src/main.c    ****   GPIOB->AFR[1] |= 4 << 12;
 337              		.loc 1 103 3 is_stmt 1 view .LVU82
 103:Src/main.c    ****   GPIOB->AFR[1] |= 4 << 12;
 338              		.loc 1 103 13 is_stmt 0 view .LVU83
 339 004a 586A     		ldr	r0, [r3, #36]
 103:Src/main.c    ****   GPIOB->AFR[1] |= 4 << 12;
 340              		.loc 1 103 17 view .LVU84
 341 004c 164C     		ldr	r4, .L20+20
 342 004e 2040     		ands	r0, r4
 343 0050 5862     		str	r0, [r3, #36]
 104:Src/main.c    **** 
 344              		.loc 1 104 3 is_stmt 1 view .LVU85
 104:Src/main.c    **** 
 345              		.loc 1 104 13 is_stmt 0 view .LVU86
 346 0052 5C6A     		ldr	r4, [r3, #36]
 104:Src/main.c    **** 
 347              		.loc 1 104 17 view .LVU87
 348 0054 8020     		movs	r0, #128
 349 0056 C001     		lsls	r0, r0, #7
 350 0058 2043     		orrs	r0, r4
 351 005a 5862     		str	r0, [r3, #36]
 107:Src/main.c    ****   // Set baud rate to 115200 bits/s
 352              		.loc 1 107 3 is_stmt 1 view .LVU88
 107:Src/main.c    ****   // Set baud rate to 115200 bits/s
 353              		.loc 1 107 6 is_stmt 0 view .LVU89
 354 005c D369     		ldr	r3, [r2, #28]
 107:Src/main.c    ****   // Set baud rate to 115200 bits/s
 355              		.loc 1 107 16 view .LVU90
 356 005e 1943     		orrs	r1, r3
 357 0060 D161     		str	r1, [r2, #28]
 109:Src/main.c    ****   // Enable transmission and reception
 358              		.loc 1 109 3 is_stmt 1 view .LVU91
 109:Src/main.c    ****   // Enable transmission and reception
 359              		.loc 1 109 17 is_stmt 0 view .LVU92
 360 0062 FFF7FEFF 		bl	HAL_RCC_GetHCLKFreq
 361              	.LVL19:
 109:Src/main.c    ****   // Enable transmission and reception
 362              		.loc 1 109 39 discriminator 1 view .LVU93
 363 0066 E121     		movs	r1, #225
 364 0068 4902     		lsls	r1, r1, #9
 365 006a FFF7FEFF 		bl	__aeabi_uidiv
 366              	.LVL20:
 109:Src/main.c    ****   // Enable transmission and reception
 367              		.loc 1 109 15 discriminator 1 view .LVU94
 368 006e 0F4B     		ldr	r3, .L20+24
 369 0070 D860     		str	r0, [r3, #12]
 111:Src/main.c    ****   // Enable USART3
 370              		.loc 1 111 3 is_stmt 1 view .LVU95
 111:Src/main.c    ****   // Enable USART3
ARM GAS  /var/folders/2t/dz2wf36n58l1r0cmb7nl3kb40000gq/T//cc3uekKx.s 			page 12


 371              		.loc 1 111 9 is_stmt 0 view .LVU96
 372 0072 1A68     		ldr	r2, [r3]
 111:Src/main.c    ****   // Enable USART3
 373              		.loc 1 111 15 view .LVU97
 374 0074 0C21     		movs	r1, #12
 375 0076 0A43     		orrs	r2, r1
 376 0078 1A60     		str	r2, [r3]
 113:Src/main.c    **** 
 377              		.loc 1 113 3 is_stmt 1 view .LVU98
 113:Src/main.c    **** 
 378              		.loc 1 113 9 is_stmt 0 view .LVU99
 379 007a 1A68     		ldr	r2, [r3]
 113:Src/main.c    **** 
 380              		.loc 1 113 15 view .LVU100
 381 007c 0B39     		subs	r1, r1, #11
 382 007e 0A43     		orrs	r2, r1
 383 0080 1A60     		str	r2, [r3]
 384              	.L19:
 115:Src/main.c    ****   {
 385              		.loc 1 115 3 is_stmt 1 view .LVU101
 117:Src/main.c    ****     HAL_Delay(1000);
 386              		.loc 1 117 5 view .LVU102
 387 0082 0B48     		ldr	r0, .L20+28
 388 0084 FFF7FEFF 		bl	transmit_string
 389              	.LVL21:
 118:Src/main.c    ****   }
 390              		.loc 1 118 5 discriminator 1 view .LVU103
 391 0088 FA20     		movs	r0, #250
 392 008a 8000     		lsls	r0, r0, #2
 393 008c FFF7FEFF 		bl	HAL_Delay
 394              	.LVL22:
 115:Src/main.c    ****   {
 395              		.loc 1 115 8 view .LVU104
 396 0090 F7E7     		b	.L19
 397              	.L21:
 398 0092 C046     		.align	2
 399              	.L20:
 400 0094 00100240 		.word	1073876992
 401 0098 00040048 		.word	1207960576
 402 009c FFFFCFFF 		.word	-3145729
 403 00a0 FFFF3FFF 		.word	-12582913
 404 00a4 FFF0FFFF 		.word	-3841
 405 00a8 FF0FFFFF 		.word	-61441
 406 00ac 00480040 		.word	1073760256
 407 00b0 00000000 		.word	.LC2
 408              		.cfi_endproc
 409              	.LFE42:
 411              		.text
 412              	.Letext0:
 413              		.file 2 "Drivers/CMSIS/Device/ST/STM32F0xx/Include/stm32f072xb.h"
 414              		.file 3 "/Applications/ArmGNUToolchain/13.2.Rel1/arm-none-eabi/arm-none-eabi/include/machine/_defa
 415              		.file 4 "/Applications/ArmGNUToolchain/13.2.Rel1/arm-none-eabi/arm-none-eabi/include/sys/_stdint.h
 416              		.file 5 "Drivers/STM32F0xx_HAL_Driver/Inc/stm32f0xx_hal_def.h"
 417              		.file 6 "Drivers/STM32F0xx_HAL_Driver/Inc/stm32f0xx_hal_rcc.h"
 418              		.file 7 "Drivers/STM32F0xx_HAL_Driver/Inc/stm32f0xx_hal_cortex.h"
 419              		.file 8 "Drivers/STM32F0xx_HAL_Driver/Inc/stm32f0xx_hal.h"
ARM GAS  /var/folders/2t/dz2wf36n58l1r0cmb7nl3kb40000gq/T//cc3uekKx.s 			page 13


DEFINED SYMBOLS
                            *ABS*:00000000 main.c
/var/folders/2t/dz2wf36n58l1r0cmb7nl3kb40000gq/T//cc3uekKx.s:19     .text.send_char:00000000 $t
/var/folders/2t/dz2wf36n58l1r0cmb7nl3kb40000gq/T//cc3uekKx.s:25     .text.send_char:00000000 send_char
/var/folders/2t/dz2wf36n58l1r0cmb7nl3kb40000gq/T//cc3uekKx.s:53     .text.send_char:00000010 $d
/var/folders/2t/dz2wf36n58l1r0cmb7nl3kb40000gq/T//cc3uekKx.s:58     .text.transmit_string:00000000 $t
/var/folders/2t/dz2wf36n58l1r0cmb7nl3kb40000gq/T//cc3uekKx.s:64     .text.transmit_string:00000000 transmit_string
/var/folders/2t/dz2wf36n58l1r0cmb7nl3kb40000gq/T//cc3uekKx.s:114    .text._Error_Handler:00000000 $t
/var/folders/2t/dz2wf36n58l1r0cmb7nl3kb40000gq/T//cc3uekKx.s:120    .text._Error_Handler:00000000 _Error_Handler
/var/folders/2t/dz2wf36n58l1r0cmb7nl3kb40000gq/T//cc3uekKx.s:138    .rodata.SystemClock_Config.str1.4:00000000 $d
/var/folders/2t/dz2wf36n58l1r0cmb7nl3kb40000gq/T//cc3uekKx.s:143    .text.SystemClock_Config:00000000 $t
/var/folders/2t/dz2wf36n58l1r0cmb7nl3kb40000gq/T//cc3uekKx.s:149    .text.SystemClock_Config:00000000 SystemClock_Config
/var/folders/2t/dz2wf36n58l1r0cmb7nl3kb40000gq/T//cc3uekKx.s:252    .text.SystemClock_Config:0000006c $d
/var/folders/2t/dz2wf36n58l1r0cmb7nl3kb40000gq/T//cc3uekKx.s:257    .rodata.main.str1.4:00000000 $d
/var/folders/2t/dz2wf36n58l1r0cmb7nl3kb40000gq/T//cc3uekKx.s:261    .text.main:00000000 $t
/var/folders/2t/dz2wf36n58l1r0cmb7nl3kb40000gq/T//cc3uekKx.s:267    .text.main:00000000 main
/var/folders/2t/dz2wf36n58l1r0cmb7nl3kb40000gq/T//cc3uekKx.s:400    .text.main:00000094 $d

UNDEFINED SYMBOLS
__aeabi_uidiv
HAL_RCC_OscConfig
HAL_RCC_ClockConfig
HAL_RCC_GetHCLKFreq
HAL_SYSTICK_Config
HAL_SYSTICK_CLKSourceConfig
HAL_NVIC_SetPriority
HAL_Delay
